; Function Attrs: nounwind uwtable
define nonnull ptr @l_Lake_hexEncodeByte___boxed(ptr noundef %0) local_unnamed_addr #1 {
  %2 = ptrtoint ptr %0 to i64
  %3 = lshr i64 %2, 1
  %4 = trunc i64 %3 to i8
  %5 = and i64 %2, 1
  %.not = icmp eq i64 %5, 0
  br i1 %.not, label %6, label %lean_dec.exit

6:                                                ; preds = %1
  %7 = load i32, ptr %0, align 4, !tbaa !4
  %8 = icmp sgt i32 %7, 1
  br i1 %8, label %9, label %11, !prof !9

9:                                                ; preds = %6
  %10 = add nsw i32 %7, -1
  store i32 %10, ptr %0, align 4, !tbaa !4
  br label %lean_dec.exit

11:                                               ; preds = %6
  %.not.i = icmp eq i32 %7, 0
  br i1 %.not.i, label %lean_dec.exit, label %12

12:                                               ; preds = %11
  tail call void @lean_dec_ref_cold(ptr noundef nonnull %0) #7
  br label %lean_dec.exit

lean_dec.exit:                                    ; preds = %12, %11, %9, %1
  %13 = icmp ult i8 %4, 15
  br i1 %13, label %switch.lookup, label %14

14:                                               ; preds = %lean_dec.exit
  %.not80.i = icmp eq i8 %4, 15
  %15 = select i1 %.not80.i, i64 141, i64 85
  br label %l_Lake_hexEncodeByte.exit

switch.lookup:                                    ; preds = %lean_dec.exit
  %16 = and i64 %3, 15
  %switch.gep = getelementptr inbounds nuw [15 x i64], ptr @switch.table.l_Lake_hexEncodeByte___boxed, i64 0, i64 %16
  %switch.load = load i64, ptr %switch.gep, align 8
  br label %l_Lake_hexEncodeByte.exit

l_Lake_hexEncodeByte.exit:                        ; preds = %switch.lookup, %14
  %.15.i = phi i64 [ %15, %14 ], [ %switch.load, %switch.lookup ]
  %17 = inttoptr i64 %.15.i to ptr
  ret ptr %17
}